; Function Attrs: mustprogress nofree norecurse nosync nounwind null_pointer_is_valid sspstrong willreturn memory(read, inaccessiblemem: none) uwtable
define noundef i32 @_ZNK21EnabledProtocolsModel8rowCountERK11QModelIndex(ptr noundef readonly align 8 captures(none) dereferenceable_or_null(24) %0, ptr noundef readonly align 8 captures(none) dereferenceable(24) %1) unnamed_addr #10 align 2 {
  %3 = getelementptr inbounds nuw i8, ptr %1, i64 4
  %4 = load i32, ptr %3, align 4
  %5 = icmp sgt i32 %4, 0
  br i1 %5, label %25, label %6

6:                                                ; preds = %2
  %7 = load i32, ptr %1, align 8
  %8 = icmp sgt i32 %7, -1
  %9 = icmp eq i32 %4, 0
  %or.cond = and i1 %9, %8
  %10 = getelementptr inbounds nuw i8, ptr %1, i64 16
  %11 = load ptr, ptr %10, align 8
  %12 = icmp ne ptr %11, null
  %or.cond9 = select i1 %or.cond, i1 %12, i1 false
  br i1 %or.cond9, label %15, label %_ZNK11QModelIndex7isValidEv.exit.thread

_ZNK11QModelIndex7isValidEv.exit.thread:          ; preds = %6
  %13 = getelementptr inbounds nuw i8, ptr %0, i64 16
  %14 = load ptr, ptr %13, align 8
  br label %19

15:                                               ; preds = %6
  %16 = getelementptr inbounds nuw i8, ptr %1, i64 8
  %17 = load i64, ptr %16, align 8
  %18 = inttoptr i64 %17 to ptr
  br label %19

19:                                               ; preds = %15, %_ZNK11QModelIndex7isValidEv.exit.thread
  %.0 = phi ptr [ %18, %15 ], [ %14, %_ZNK11QModelIndex7isValidEv.exit.thread ]
  %20 = icmp eq ptr %.0, null
  br i1 %20, label %25, label %21

21:                                               ; preds = %19
  %22 = getelementptr inbounds nuw i8, ptr %.0, i64 32
  %23 = load i64, ptr %22, align 8
  %24 = trunc i64 %23 to i32
  br label %25

25:                                               ; preds = %19, %2, %21
  %.06 = phi i32 [ %24, %21 ], [ 0, %2 ], [ 0, %19 ]
  ret i32 %.06
}